; Function Attrs: nounwind uwtable
define internal void @lv_textarea_destructor(ptr readnone captures(none) %0, ptr noundef captures(none) %1) #0 {
  %3 = getelementptr inbounds nuw i8, ptr %1, i64 80
  %4 = load ptr, ptr %3, align 8, !tbaa !23
  %.not = icmp eq ptr %4, null
  br i1 %.not, label %6, label %5

5:                                                ; preds = %2
  tail call void @lv_free(ptr noundef nonnull %4) #10
  store ptr null, ptr %3, align 8, !tbaa !23
  br label %6

6:                                                ; preds = %5, %2
  %7 = getelementptr inbounds nuw i8, ptr %1, i64 88
  %8 = load ptr, ptr %7, align 8, !tbaa !24
  %.not12 = icmp eq ptr %8, null
  br i1 %.not12, label %10, label %9

9:                                                ; preds = %6
  tail call void @lv_free(ptr noundef nonnull %8) #10
  store ptr null, ptr %7, align 8, !tbaa !24
  br label %10

10:                                               ; preds = %9, %6
  %11 = getelementptr inbounds nuw i8, ptr %1, i64 72
  %12 = load ptr, ptr %11, align 8, !tbaa !25
  %.not13 = icmp eq ptr %12, null
  br i1 %.not13, label %14, label %13

13:                                               ; preds = %10
  tail call void @lv_free(ptr noundef nonnull %12) #10
  store ptr null, ptr %11, align 8, !tbaa !25
  br label %14

14:                                               ; preds = %13, %10
  ret void
}